target datalayout = "e-m:e-p270:32:32-p271:32:32-p272:64:64-i64:64-i128:128-f80:128-n8:16:32:64-S128"
target triple = "x86_64-pc-linux-gnu"

; Function Attrs: alwaysinline nounwind uwtable
define internal void @bytestream_put_le32(ptr noundef %0, i32 noundef %1) #1 {
  %3 = alloca ptr, align 8
  %4 = alloca i32, align 4
  store ptr %0, ptr %3, align 8, !tbaa !89
  store i32 %1, ptr %4, align 4, !tbaa !33
  %5 = load i32, ptr %4, align 4, !tbaa !33
  %6 = load ptr, ptr %3, align 8, !tbaa !89
  %7 = load ptr, ptr %6, align 8, !tbaa !37
  store i32 %5, ptr %7, align 1, !tbaa !54
  %8 = load ptr, ptr %3, align 8, !tbaa !89
  %9 = load ptr, ptr %8, align 8, !tbaa !37
  %10 = getelementptr inbounds i8, ptr %9, i64 4
  store ptr %10, ptr %8, align 8, !tbaa !37
  ret void
}

; Function Attrs: nounwind uwtable
define i32 @ff_add_param_change(ptr noundef %0, i32 noundef %1, i64 noundef %2, i32 noundef %3, i32 noundef %4, i32 noundef %5) #0 {
  %7 = alloca i32, align 4
  %8 = alloca ptr, align 8
  %9 = alloca i32, align 4
  %10 = alloca i64, align 8
  %11 = alloca i32, align 4
  %12 = alloca i32, align 4
  %13 = alloca i32, align 4
  %14 = alloca i32, align 4
  %15 = alloca i32, align 4
  %16 = alloca ptr, align 8
  %17 = alloca i32, align 4
  store ptr %0, ptr %8, align 8, !tbaa !72
  store i32 %1, ptr %9, align 4, !tbaa !33
  store i64 %2, ptr %10, align 8, !tbaa !36
  store i32 %3, ptr %11, align 4, !tbaa !33
  store i32 %4, ptr %12, align 4, !tbaa !33
  store i32 %5, ptr %13, align 4, !tbaa !33
  call void @llvm.lifetime.start.p0(i64 4, ptr %14) #6
  store i32 0, ptr %14, align 4, !tbaa !33
  call void @llvm.lifetime.start.p0(i64 4, ptr %15) #6
  store i32 4, ptr %15, align 4, !tbaa !33
  call void @llvm.lifetime.start.p0(i64 8, ptr %16) #6
  %18 = load ptr, ptr %8, align 8, !tbaa !72
  %19 = icmp ne ptr %18, null
  br i1 %19, label %21, label %20

20:                                               ; preds = %6
  store i32 -22, ptr %7, align 4
  store i32 1, ptr %17, align 4
  br label %64

21:                                               ; preds = %6
  %22 = load i32, ptr %11, align 4, !tbaa !33
  %23 = icmp ne i32 %22, 0
  br i1 %23, label %24, label %29

24:                                               ; preds = %21
  %25 = load i32, ptr %15, align 4, !tbaa !33
  %26 = add nsw i32 %25, 4
  store i32 %26, ptr %15, align 4, !tbaa !33
  %27 = load i32, ptr %14, align 4, !tbaa !33
  %28 = or i32 %27, 4
  store i32 %28, ptr %14, align 4, !tbaa !33
  br label %29

29:                                               ; preds = %24, %21
  %30 = load i32, ptr %12, align 4, !tbaa !33
  %31 = icmp ne i32 %30, 0
  br i1 %31, label %35, label %32

32:                                               ; preds = %29
  %33 = load i32, ptr %13, align 4, !tbaa !33
  %34 = icmp ne i32 %33, 0
  br i1 %34, label %35, label %40

35:                                               ; preds = %32, %29
  %36 = load i32, ptr %15, align 4, !tbaa !33
  %37 = add nsw i32 %36, 8
  store i32 %37, ptr %15, align 4, !tbaa !33
  %38 = load i32, ptr %14, align 4, !tbaa !33
  %39 = or i32 %38, 8
  store i32 %39, ptr %14, align 4, !tbaa !33
  br label %40

40:                                               ; preds = %35, %32
  %41 = load ptr, ptr %8, align 8, !tbaa !72
  %42 = load i32, ptr %15, align 4, !tbaa !33
  %43 = sext i32 %42 to i64
  %44 = call ptr @av_packet_new_side_data(ptr noundef %41, i32 noundef 2, i64 noundef %43)
  store ptr %44, ptr %16, align 8, !tbaa !37
  %45 = load ptr, ptr %16, align 8, !tbaa !37
  %46 = icmp ne ptr %45, null
  br i1 %46, label %48, label %47

47:                                               ; preds = %40
  store i32 -12, ptr %7, align 4
  store i32 1, ptr %17, align 4
  br label %64

48:                                               ; preds = %40
  %49 = load i32, ptr %14, align 4, !tbaa !33
  call void @bytestream_put_le32(ptr noundef %16, i32 noundef %49)
  %50 = load i32, ptr %11, align 4, !tbaa !33
  %51 = icmp ne i32 %50, 0
  br i1 %51, label %52, label %54

52:                                               ; preds = %48
  %53 = load i32, ptr %11, align 4, !tbaa !33
  call void @bytestream_put_le32(ptr noundef %16, i32 noundef %53)
  br label %54

54:                                               ; preds = %52, %48
  %55 = load i32, ptr %12, align 4, !tbaa !33
  %56 = icmp ne i32 %55, 0
  br i1 %56, label %60, label %57

57:                                               ; preds = %54
  %58 = load i32, ptr %13, align 4, !tbaa !33
  %59 = icmp ne i32 %58, 0
  br i1 %59, label %60, label %63

60:                                               ; preds = %57, %54
  %61 = load i32, ptr %12, align 4, !tbaa !33
  call void @bytestream_put_le32(ptr noundef %16, i32 noundef %61)
  %62 = load i32, ptr %13, align 4, !tbaa !33
  call void @bytestream_put_le32(ptr noundef %16, i32 noundef %62)
  br label %63

63:                                               ; preds = %60, %57
  store i32 0, ptr %7, align 4
  store i32 1, ptr %17, align 4
  br label %64

64:                                               ; preds = %63, %47, %20
  call void @llvm.lifetime.end.p0(i64 8, ptr %16) #6
  call void @llvm.lifetime.end.p0(i64 4, ptr %15) #6
  call void @llvm.lifetime.end.p0(i64 4, ptr %14) #6
  %65 = load i32, ptr %7, align 4
  ret i32 %65
}