; Function Attrs: nounwind uwtable
define range(i32 -22, 1) i32 @ff_add_param_change(ptr noundef %0, i32 noundef %1, i64 noundef %2, i32 noundef %3, i32 noundef %4, i32 noundef %5) local_unnamed_addr #2 {
  %.not = icmp eq ptr %0, null
  br i1 %.not, label %20, label %7

7:                                                ; preds = %6
  %.not25 = icmp eq i32 %3, 0
  %spec.select27 = select i1 %.not25, i32 4, i32 8
  %8 = or i32 %5, %4
  %or.cond.not = icmp eq i32 %8, 0
  %9 = add nuw nsw i32 %spec.select27, 8
  %.1 = select i1 %or.cond.not, i32 %spec.select27, i32 %9
  %10 = zext nneg i32 %.1 to i64
  %11 = tail call ptr @av_packet_new_side_data(ptr noundef nonnull %0, i32 noundef 2, i64 noundef %10) #6
  %.not26 = icmp eq ptr %11, null
  br i1 %.not26, label %20, label %12

12:                                               ; preds = %7
  %spec.select = select i1 %.not25, i32 0, i32 4
  %13 = or disjoint i32 %spec.select, 8
  %.121 = select i1 %or.cond.not, i32 %spec.select, i32 %13
  store i32 %.121, ptr %11, align 1, !tbaa !44
  %14 = getelementptr inbounds nuw i8, ptr %11, i64 4
  br i1 %.not25, label %17, label %15

15:                                               ; preds = %12
  store i32 %3, ptr %14, align 1, !tbaa !44
  %16 = getelementptr inbounds nuw i8, ptr %11, i64 8
  br label %17

17:                                               ; preds = %15, %12
  %.0 = phi ptr [ %14, %12 ], [ %16, %15 ]
  br i1 %or.cond.not, label %20, label %18

18:                                               ; preds = %17
  store i32 %4, ptr %.0, align 1, !tbaa !44
  %19 = getelementptr inbounds nuw i8, ptr %.0, i64 4
  store i32 %5, ptr %19, align 1, !tbaa !44
  br label %20

20:                                               ; preds = %18, %17, %7, %6
  %.022 = phi i32 [ -22, %6 ], [ -12, %7 ], [ 0, %17 ], [ 0, %18 ]
  ret i32 %.022
}